; Function Attrs: nofree norecurse nosync nounwind memory(argmem: readwrite) uwtable
define void @square_vec(i32 noundef %0, ptr noundef captures(none) %1) local_unnamed_addr #3 {
  %3 = icmp sgt i32 %0, 0
  br i1 %3, label %.lr.ph.preheader, label %._crit_edge

.lr.ph.preheader:                                 ; preds = %2
  %wide.trip.count = zext nneg i32 %0 to i64
  br label %.lr.ph

.lr.ph:                                           ; preds = %.lr.ph.preheader, %.lr.ph
  %indvars.iv = phi i64 [ 0, %.lr.ph.preheader ], [ %indvars.iv.next, %.lr.ph ]
  %4 = getelementptr inbounds nuw float, ptr %1, i64 %indvars.iv
  %5 = load float, ptr %4, align 4, !tbaa !35
  %6 = fmul float %5, %5
  store float %6, ptr %4, align 4, !tbaa !35
  %indvars.iv.next = add nuw nsw i64 %indvars.iv, 1
  %exitcond.not = icmp eq i64 %indvars.iv.next, %wide.trip.count
  br i1 %exitcond.not, label %._crit_edge, label %.lr.ph, !llvm.loop !81

._crit_edge:                                      ; preds = %.lr.ph, %2
  ret void
}